; Function Attrs: mustprogress nofree norecurse nosync nounwind willreturn memory(argmem: readwrite) uwtable
define hidden void @_ZN4cvc58internal11NodeManager10operatorOfENS0_4kind6Kind_tE(ptr noalias nocapture writeonly sret(%"class.cvc5::internal::NodeTemplate.280") align 8 %agg.result, ptr nocapture noundef nonnull readonly align 8 dereferenceable(3360) %this, i32 noundef %k) local_unnamed_addr #15 align 2 {
entry:
  %d_operators = getelementptr inbounds i8, ptr %this, i64 184
  %idxprom = zext i32 %k to i64
  %arrayidx = getelementptr inbounds [365 x %"class.cvc5::internal::NodeTemplate"], ptr %d_operators, i64 0, i64 %idxprom
  %0 = load ptr, ptr %arrayidx, align 8
  store ptr %0, ptr %agg.result, align 8
  ret void
}